; Function Attrs: mustprogress uwtable
define void @_ZN3gmx24AbstractAverageHistogram11scaleSingleEif(ptr noundef nonnull align 8 dereferenceable(120) %0, i32 noundef %1, float noundef %2) local_unnamed_addr #3 align 2 {
  %4 = getelementptr inbounds i8, ptr %0, i64 16
  %5 = load i32, ptr %4, align 8
  %6 = icmp sgt i32 %5, 0
  br i1 %6, label %.lr.ph, label %._crit_edge

.lr.ph:                                           ; preds = %3
  %7 = getelementptr inbounds i8, ptr %0, i64 40
  br label %8

8:                                                ; preds = %.lr.ph, %8
  %.08 = phi i32 [ 0, %.lr.ph ], [ %25, %8 ]
  %9 = tail call noundef i32 @_ZNK3gmx20AbstractAnalysisData11columnCountEv(ptr noundef nonnull align 8 dereferenceable(16) %0)
  %10 = mul nsw i32 %9, %.08
  %11 = add nsw i32 %10, %1
  %12 = sext i32 %11 to i64
  %13 = load ptr, ptr %7, align 8
  %14 = getelementptr inbounds %"class.gmx::AnalysisDataValue", ptr %13, i64 %12
  %15 = load float, ptr %14, align 4
  %16 = fmul float %15, %2
  store float %16, ptr %14, align 4
  %17 = tail call noundef i32 @_ZNK3gmx20AbstractAnalysisData11columnCountEv(ptr noundef nonnull align 8 dereferenceable(16) %0)
  %18 = mul nsw i32 %17, %.08
  %19 = add nsw i32 %18, %1
  %20 = sext i32 %19 to i64
  %21 = load ptr, ptr %7, align 8
  %22 = getelementptr inbounds %"class.gmx::AnalysisDataValue", ptr %21, i64 %20, i32 1
  %23 = load float, ptr %22, align 4
  %24 = fmul float %23, %2
  store float %24, ptr %22, align 4
  %25 = add nuw nsw i32 %.08, 1
  %26 = load i32, ptr %4, align 8
  %27 = icmp slt i32 %25, %26
  br i1 %27, label %8, label %._crit_edge, !llvm.loop !28

._crit_edge:                                      ; preds = %8, %3
  ret void
}